#include <math.h>
#include <stdio.h>
#include <stdlib.h>
#include <string.h>


int N, A;

int acSearch(int n, int i) {
	int ret = 0;

	if(n == 1) ret = 1;
	else for(; i <= n; ++ i)
		if(n%i == 0) ret += acSearch(n/i, i);

	return ret;
}

int main() {
	scanf("%d", &N);
	for(; N --;) {
		scanf("%d", &A);
		printf("%d\n", acSearch(A, 2));
	}
	return 0;
}
